; Function Attrs: nounwind uwtable
define internal ptr @enum_reduce(ptr noundef readonly captures(none) %0, ptr readnone captures(none) %1) #0 {
  %3 = getelementptr inbounds nuw i8, ptr %0, i64 40
  %4 = load ptr, ptr %3, align 8, !tbaa !15
  %.not = icmp eq ptr %4, null
  %5 = getelementptr i8, ptr %0, i64 8
  %.val = load ptr, ptr %5, align 8, !tbaa !16
  %6 = getelementptr inbounds nuw i8, ptr %0, i64 24
  %7 = load ptr, ptr %6, align 8, !tbaa !4
  br i1 %.not, label %10, label %8

8:                                                ; preds = %2
  %9 = tail call ptr (ptr, ...) @Py_BuildValue(ptr noundef nonnull @.str.6, ptr noundef %.val, ptr noundef %7, ptr noundef nonnull %4) #4
  br label %14

10:                                               ; preds = %2
  %11 = getelementptr inbounds nuw i8, ptr %0, i64 16
  %12 = load i64, ptr %11, align 8, !tbaa !27
  %13 = tail call ptr (ptr, ...) @Py_BuildValue(ptr noundef nonnull @.str.7, ptr noundef %.val, ptr noundef %7, i64 noundef %12) #4
  br label %14

14:                                               ; preds = %10, %8
  %.0 = phi ptr [ %9, %8 ], [ %13, %10 ]
  ret ptr %.0
}